target datalayout = "e-m:e-p270:32:32-p271:32:32-p272:64:64-i64:64-i128:128-f80:128-n8:16:32:64-S128"
target triple = "x86_64-pc-linux-gnu"

%struct.dt_pthread_mutex_t = type { %union.pthread_mutex_t }
%union.pthread_mutex_t = type { %struct.__pthread_mutex_s }
%struct.__pthread_mutex_s = type { i32, i32, i32, i32, i32, i16, i16, %struct.__pthread_internal_list }
%struct.__pthread_internal_list = type { ptr, ptr }
%struct.dt_iop_module_t = type { i32, ptr, ptr, ptr, ptr, ptr, ptr, ptr, ptr, ptr, ptr, ptr, ptr, ptr, ptr, ptr, ptr, ptr, ptr, ptr, ptr, ptr, ptr, ptr, ptr, ptr, ptr, ptr, ptr, ptr, ptr, ptr, ptr, ptr, ptr, ptr, ptr, ptr, ptr, ptr, ptr, ptr, ptr, ptr, ptr, ptr, ptr, ptr, ptr, ptr, ptr, ptr, ptr, ptr, ptr, ptr, ptr, [20 x i8], i32, i32, i32, i32, i32, i32, i32, [8 x i8], [4 x float], [4 x float], [4 x float], [4 x float], [4 x float], [4 x float], ptr, %struct.dt_dev_histogram_stats_t, [4 x i32], i32, i32, ptr, i32, i32, ptr, ptr, i32, ptr, %struct.dt_pthread_mutex_t, ptr, ptr, ptr, ptr, %struct.anon, ptr, ptr, ptr, ptr, ptr, ptr, ptr, i32, ptr, ptr, ptr, ptr, ptr, ptr, ptr, i32, ptr, i32, [128 x i8], i32, ptr, ptr, i32, [12 x i8] }
%struct.dt_dev_histogram_stats_t = type { i32, i64, i32, i32 }
%struct.anon = type { %struct.anon.0, %struct.anon.1 }
%struct.anon.0 = type { ptr, ptr }
%struct.anon.1 = type { ptr, i32 }
%struct.dt_iop_rgblevels_gui_data_t = type { %struct.dt_iop_rgblevels_params_t, ptr, ptr, ptr, ptr, ptr, ptr, i32, i32, float, float, float, float, [4 x float], i32, double, double, i32, i32, float, i32, float, ptr, ptr, ptr }
%struct.dt_iop_rgblevels_params_t = type { i32, i32, [3 x [3 x float]] }

; Function Attrs: nounwind uwtable
define internal void @_rgblevels_show_hide_controls(ptr noundef %0, ptr noundef %1) #0 {
  %3 = alloca ptr, align 8
  %4 = alloca ptr, align 8
  store ptr %0, ptr %3, align 8, !tbaa !126
  store ptr %1, ptr %4, align 8, !tbaa !37
  %5 = load ptr, ptr %3, align 8, !tbaa !126
  %6 = getelementptr inbounds nuw %struct.dt_iop_rgblevels_params_t, ptr %5, i32 0, i32 0
  %7 = load i32, ptr %6, align 4, !tbaa !131
  switch i32 %7, label %16 [
    i32 1, label %8
    i32 0, label %12
  ]

8:                                                ; preds = %2
  %9 = load ptr, ptr %4, align 8, !tbaa !37
  %10 = getelementptr inbounds nuw %struct.dt_iop_rgblevels_gui_data_t, ptr %9, i32 0, i32 4
  %11 = load ptr, ptr %10, align 8, !tbaa !130
  call void @gtk_notebook_set_show_tabs(ptr noundef %11, i32 noundef 1)
  br label %16

12:                                               ; preds = %2
  %13 = load ptr, ptr %4, align 8, !tbaa !37
  %14 = getelementptr inbounds nuw %struct.dt_iop_rgblevels_gui_data_t, ptr %13, i32 0, i32 4
  %15 = load ptr, ptr %14, align 8, !tbaa !130
  call void @gtk_notebook_set_show_tabs(ptr noundef %15, i32 noundef 0)
  br label %16

16:                                               ; preds = %2, %12, %8
  %17 = load ptr, ptr %3, align 8, !tbaa !126
  %18 = getelementptr inbounds nuw %struct.dt_iop_rgblevels_params_t, ptr %17, i32 0, i32 0
  %19 = load i32, ptr %18, align 4, !tbaa !131
  %20 = icmp eq i32 %19, 0
  br i1 %20, label %21, label %25

21:                                               ; preds = %16
  %22 = load ptr, ptr %4, align 8, !tbaa !37
  %23 = getelementptr inbounds nuw %struct.dt_iop_rgblevels_gui_data_t, ptr %22, i32 0, i32 3
  %24 = load ptr, ptr %23, align 8, !tbaa !132
  call void @gtk_widget_set_visible(ptr noundef %24, i32 noundef 1)
  br label %29

25:                                               ; preds = %16
  %26 = load ptr, ptr %4, align 8, !tbaa !37
  %27 = getelementptr inbounds nuw %struct.dt_iop_rgblevels_gui_data_t, ptr %26, i32 0, i32 3
  %28 = load ptr, ptr %27, align 8, !tbaa !132
  call void @gtk_widget_set_visible(ptr noundef %28, i32 noundef 0)
  br label %29

29:                                               ; preds = %25, %21
  ret void
}

; Function Attrs: nounwind uwtable
define void @gui_update(ptr noundef %0) #0 {
  %2 = alloca ptr, align 8
  %3 = alloca ptr, align 8
  %4 = alloca ptr, align 8
  store ptr %0, ptr %2, align 8, !tbaa !6
  call void @llvm.lifetime.start.p0(i64 8, ptr %3) #13
  %5 = load ptr, ptr %2, align 8, !tbaa !6
  %6 = getelementptr inbounds nuw %struct.dt_iop_module_t, ptr %5, i32 0, i32 80
  %7 = load ptr, ptr %6, align 8, !tbaa !125
  store ptr %7, ptr %3, align 8, !tbaa !126
  call void @llvm.lifetime.start.p0(i64 8, ptr %4) #13
  %8 = load ptr, ptr %2, align 8, !tbaa !6
  %9 = getelementptr inbounds nuw %struct.dt_iop_module_t, ptr %8, i32 0, i32 83
  %10 = load ptr, ptr %9, align 16, !tbaa !21
  store ptr %10, ptr %4, align 8, !tbaa !37
  %11 = load ptr, ptr %4, align 8, !tbaa !37
  %12 = getelementptr inbounds nuw %struct.dt_iop_rgblevels_gui_data_t, ptr %11, i32 0, i32 1
  %13 = load ptr, ptr %12, align 8, !tbaa !128
  %14 = load ptr, ptr %3, align 8, !tbaa !126
  %15 = getelementptr inbounds nuw %struct.dt_iop_rgblevels_params_t, ptr %14, i32 0, i32 0
  %16 = load i32, ptr %15, align 4, !tbaa !131
  call void @dt_bauhaus_combobox_set(ptr noundef %13, i32 noundef %16)
  %17 = load ptr, ptr %4, align 8, !tbaa !37
  %18 = getelementptr inbounds nuw %struct.dt_iop_rgblevels_gui_data_t, ptr %17, i32 0, i32 3
  %19 = load ptr, ptr %18, align 8, !tbaa !132
  %20 = load ptr, ptr %3, align 8, !tbaa !126
  %21 = getelementptr inbounds nuw %struct.dt_iop_rgblevels_params_t, ptr %20, i32 0, i32 1
  %22 = load i32, ptr %21, align 4, !tbaa !147
  call void @dt_bauhaus_combobox_set(ptr noundef %19, i32 noundef %22)
  %23 = load ptr, ptr %4, align 8, !tbaa !37
  %24 = getelementptr inbounds nuw %struct.dt_iop_rgblevels_gui_data_t, ptr %23, i32 0, i32 6
  %25 = load ptr, ptr %24, align 8, !tbaa !148
  %26 = call i64 @gtk_toggle_button_get_type() #14
  %27 = call ptr @g_type_check_instance_cast(ptr noundef %25, i64 noundef %26)
  %28 = load ptr, ptr %4, align 8, !tbaa !37
  %29 = getelementptr inbounds nuw %struct.dt_iop_rgblevels_gui_data_t, ptr %28, i32 0, i32 8
  %30 = load i32, ptr %29, align 4, !tbaa !39
  call void @gtk_toggle_button_set_active(ptr noundef %27, i32 noundef %30)
  %31 = load ptr, ptr %3, align 8, !tbaa !126
  %32 = load ptr, ptr %4, align 8, !tbaa !37
  call void @_rgblevels_show_hide_controls(ptr noundef %31, ptr noundef %32)
  %33 = load ptr, ptr %4, align 8, !tbaa !37
  %34 = getelementptr inbounds nuw %struct.dt_iop_rgblevels_gui_data_t, ptr %33, i32 0, i32 2
  %35 = load ptr, ptr %34, align 8, !tbaa !149
  %36 = call i64 @gtk_widget_get_type() #14
  %37 = call ptr @g_type_check_instance_cast(ptr noundef %35, i64 noundef %36)
  call void @gtk_widget_queue_draw(ptr noundef %37)
  call void @llvm.lifetime.end.p0(i64 8, ptr %4) #13
  call void @llvm.lifetime.end.p0(i64 8, ptr %3) #13
  ret void
}