; Function Attrs: nounwind uwtable
define void @gui_update(ptr noundef readonly captures(none) %0) local_unnamed_addr #1 {
  %2 = getelementptr inbounds nuw i8, ptr %0, i64 680
  %3 = load ptr, ptr %2, align 8, !tbaa !114
  %4 = getelementptr inbounds nuw i8, ptr %0, i64 704
  %5 = load ptr, ptr %4, align 16, !tbaa !6
  %6 = getelementptr inbounds nuw i8, ptr %5, i64 48
  %7 = load ptr, ptr %6, align 8, !tbaa !115
  %8 = load i32, ptr %3, align 4, !tbaa !118
  tail call void @dt_bauhaus_combobox_set(ptr noundef %7, i32 noundef %8) #21
  %9 = getelementptr inbounds nuw i8, ptr %5, i64 64
  %10 = load ptr, ptr %9, align 8, !tbaa !119
  %11 = getelementptr inbounds nuw i8, ptr %3, i64 4
  %12 = load i32, ptr %11, align 4, !tbaa !132
  tail call void @dt_bauhaus_combobox_set(ptr noundef %10, i32 noundef %12) #21
  %13 = getelementptr inbounds nuw i8, ptr %5, i64 88
  %14 = load ptr, ptr %13, align 8, !tbaa !113
  %15 = tail call i64 @gtk_toggle_button_get_type() #23
  %16 = tail call ptr @g_type_check_instance_cast(ptr noundef %14, i64 noundef %15) #21
  %17 = getelementptr inbounds nuw i8, ptr %5, i64 100
  %18 = load i32, ptr %17, align 4, !tbaa !27
  tail call void @gtk_toggle_button_set_active(ptr noundef %16, i32 noundef %18) #21
  %19 = load i32, ptr %3, align 4, !tbaa !118
  %switch = icmp ult i32 %19, 2
  br i1 %switch, label %20, label %.thread.i

20:                                               ; preds = %1
  %21 = getelementptr inbounds nuw i8, ptr %5, i64 72
  %22 = load ptr, ptr %21, align 8, !tbaa !117
  tail call void @gtk_notebook_set_show_tabs(ptr noundef %22, i32 noundef %19) #21
  %.pr.i = load i32, ptr %3, align 4, !tbaa !118
  %23 = icmp eq i32 %.pr.i, 0
  br i1 %23, label %_rgblevels_show_hide_controls.exit, label %.thread.i

.thread.i:                                        ; preds = %1, %20
  br label %_rgblevels_show_hide_controls.exit

_rgblevels_show_hide_controls.exit:               ; preds = %20, %.thread.i
  %.sink8.i = phi i32 [ 0, %.thread.i ], [ 1, %20 ]
  %24 = load ptr, ptr %9, align 8, !tbaa !119
  tail call void @gtk_widget_set_visible(ptr noundef %24, i32 noundef %.sink8.i) #21
  %25 = getelementptr inbounds nuw i8, ptr %5, i64 56
  %26 = load ptr, ptr %25, align 8, !tbaa !133
  %27 = tail call i64 @gtk_widget_get_type() #23
  %28 = tail call ptr @g_type_check_instance_cast(ptr noundef %26, i64 noundef %27) #21
  tail call void @gtk_widget_queue_draw(ptr noundef %28) #21
  ret void
}